; Function Attrs: inlinehint nounwind sspstrong uwtable
define internal fastcc i64 @h_trunc(i64 noundef %0, ptr noundef nonnull writeonly captures(none) %1) unnamed_addr #5 {
  %3 = and i64 %0, 1
  %.not.i = icmp eq i64 %3, 0
  br i1 %.not.i, label %4, label %to_integer.exit

4:                                                ; preds = %2
  %5 = icmp eq i64 %0, 0
  %6 = and i64 %0, 6
  %7 = icmp ne i64 %6, 0
  %8 = or i1 %5, %7
  br i1 %8, label %9, label %rb_type.exit.i

9:                                                ; preds = %4
  %10 = tail call i64 @llvm.fshl.i64(i64 %0, i64 %0, i64 62)
  switch i64 %10, label %11 [
    i64 0, label %wholenum_p.exit.thread
    i64 1, label %wholenum_p.exit.thread
    i64 5, label %wholenum_p.exit.thread
    i64 9, label %wholenum_p.exit.thread
  ]

11:                                               ; preds = %9
  %12 = and i64 %0, 254
  %13 = icmp eq i64 %12, 12
  br i1 %13, label %wholenum_p.exit.thread, label %rb_type.exit.thread9.i

rb_type.exit.i:                                   ; preds = %4
  %14 = inttoptr i64 %0 to ptr
  %15 = load i64, ptr %14, align 8, !tbaa !35
  %16 = trunc i64 %15 to i32
  %17 = and i32 %16, 31
  switch i32 %17, label %wholenum_p.exit.thread [
    i32 10, label %rb_integer_type_p.exit.i
    i32 4, label %rb_type.exit.thread9.i
    i32 15, label %21
  ]

rb_type.exit.thread9.i:                           ; preds = %rb_type.exit.i, %11
  %18 = tail call double @rb_float_value(i64 noundef %0) #24
  %19 = tail call double @llvm.round.f64(double %18)
  %20 = fcmp oeq double %19, %18
  br i1 %20, label %.thread26, label %wholenum_p.exit.thread

21:                                               ; preds = %rb_type.exit.i
  %22 = tail call i64 @rb_rational_den(i64 noundef %0) #24
  %or.cond = icmp eq i64 %22, 3
  br i1 %or.cond, label %rb_integer_type_p.exit.i, label %wholenum_p.exit.thread

.thread26:                                        ; preds = %rb_type.exit.thread9.i
  br i1 %8, label %rb_integer_type_p.exit.thread7.i, label %rb_integer_type_p.exit.i

rb_integer_type_p.exit.i:                         ; preds = %21, %rb_type.exit.i, %.thread26
  %23 = inttoptr i64 %0 to ptr
  %24 = load i64, ptr %23, align 8, !tbaa !35
  %25 = and i64 %24, 31
  %26 = icmp eq i64 %25, 10
  br i1 %26, label %to_integer.exit, label %rb_integer_type_p.exit.thread7.i

rb_integer_type_p.exit.thread7.i:                 ; preds = %rb_integer_type_p.exit.i, %.thread26
  %.pr.i.i = load i64, ptr @to_integer.rbimpl_id, align 8, !tbaa !6
  %.not4.i.i = icmp eq i64 %.pr.i.i, 0
  br i1 %.not4.i.i, label %.lr.ph.i.i, label %rbimpl_intern_const.exit.i

.lr.ph.i.i:                                       ; preds = %rb_integer_type_p.exit.thread7.i, %.lr.ph.i.i
  %27 = tail call i64 @rb_intern2(ptr noundef nonnull @.str.166, i64 noundef 4) #21
  store i64 %27, ptr @to_integer.rbimpl_id, align 8, !tbaa !6
  %.not.i5.i = icmp eq i64 %27, 0
  br i1 %.not.i5.i, label %.lr.ph.i.i, label %rbimpl_intern_const.exit.i, !llvm.loop !51

rbimpl_intern_const.exit.i:                       ; preds = %.lr.ph.i.i, %rb_integer_type_p.exit.thread7.i
  %.lcssa.i.i = phi i64 [ %.pr.i.i, %rb_integer_type_p.exit.thread7.i ], [ %27, %.lr.ph.i.i ]
  %28 = tail call i64 (i64, i64, i32, ...) @rb_funcall(i64 noundef %0, i64 noundef %.lcssa.i.i, i32 noundef 0) #21
  br label %to_integer.exit

wholenum_p.exit.thread:                           ; preds = %rb_type.exit.thread9.i, %9, %9, %9, %9, %11, %rb_type.exit.i, %21
  %.pr.i = load i64, ptr @h_trunc.rbimpl_id, align 8, !tbaa !6
  %.not4.i = icmp eq i64 %.pr.i, 0
  br i1 %.not4.i, label %.lr.ph.i, label %rbimpl_intern_const.exit

.lr.ph.i:                                         ; preds = %wholenum_p.exit.thread, %.lr.ph.i
  %29 = tail call i64 @rb_intern2(ptr noundef nonnull @.str.161, i64 noundef 3) #21
  store i64 %29, ptr @h_trunc.rbimpl_id, align 8, !tbaa !6
  %.not.i11 = icmp eq i64 %29, 0
  br i1 %.not.i11, label %.lr.ph.i, label %rbimpl_intern_const.exit, !llvm.loop !51

rbimpl_intern_const.exit:                         ; preds = %.lr.ph.i, %wholenum_p.exit.thread
  %.lcssa.i = phi i64 [ %.pr.i, %wholenum_p.exit.thread ], [ %29, %.lr.ph.i ]
  %30 = tail call i64 (i64, i64, i32, ...) @rb_funcall(i64 noundef %0, i64 noundef %.lcssa.i, i32 noundef 1, i64 noundef 3) #21
  %31 = tail call i64 (i64, i64, i32, ...) @rb_funcall(i64 noundef %0, i64 noundef 37, i32 noundef 1, i64 noundef 3) #21
  store i64 %31, ptr %1, align 8, !tbaa !6
  %.pr.i12 = load i64, ptr @h_trunc.rbimpl_id.365, align 8, !tbaa !6
  %.not4.i13 = icmp eq i64 %.pr.i12, 0
  br i1 %.not4.i13, label %.lr.ph.i15, label %rbimpl_intern_const.exit17

.lr.ph.i15:                                       ; preds = %rbimpl_intern_const.exit, %.lr.ph.i15
  %32 = tail call i64 @rb_intern2(ptr noundef nonnull @.str.329, i64 noundef 3) #21
  store i64 %32, ptr @h_trunc.rbimpl_id.365, align 8, !tbaa !6
  %.not.i16 = icmp eq i64 %32, 0
  br i1 %.not.i16, label %.lr.ph.i15, label %rbimpl_intern_const.exit17, !llvm.loop !51

rbimpl_intern_const.exit17:                       ; preds = %.lr.ph.i15, %rbimpl_intern_const.exit
  %.lcssa.i14 = phi i64 [ %.pr.i12, %rbimpl_intern_const.exit ], [ %32, %.lr.ph.i15 ]
  %33 = tail call i64 (i64, i64, i32, ...) @rb_funcall(i64 noundef %31, i64 noundef %.lcssa.i14, i32 noundef 1, i64 noundef 49) #21
  br label %to_integer.exit

to_integer.exit:                                  ; preds = %rbimpl_intern_const.exit.i, %rb_integer_type_p.exit.i, %2, %rbimpl_intern_const.exit17
  %storemerge = phi i64 [ %33, %rbimpl_intern_const.exit17 ], [ 1, %2 ], [ 1, %rb_integer_type_p.exit.i ], [ 1, %rbimpl_intern_const.exit.i ]
  %.0 = phi i64 [ %30, %rbimpl_intern_const.exit17 ], [ %0, %2 ], [ %0, %rb_integer_type_p.exit.i ], [ %28, %rbimpl_intern_const.exit.i ]
  store i64 %storemerge, ptr %1, align 8, !tbaa !6
  ret i64 %.0
}